target datalayout = "e-m:e-p270:32:32-p271:32:32-p272:64:64-i64:64-i128:128-f80:128-n8:16:32:64-S128"
target triple = "x86_64-pc-linux-gnu"

%struct.lean_string_object = type { %struct.lean_object, i64, i64, i64, [0 x i8] }
%struct.lean_object = type { i32, i32 }
%"struct.lean::mpz_object" = type { %struct.lean_object, %"class.lean::mpz" }
%"class.lean::mpz" = type { [1 x %struct.__mpz_struct] }
%struct.__mpz_struct = type { i32, i32, ptr }
%struct.lean_ctor_object = type { %struct.lean_object, [0 x ptr] }

; Function Attrs: inlinehint mustprogress nounwind uwtable
define linkonce_odr hidden noundef ptr @_ZN4lean6to_mpzEP11lean_object(ptr noundef %0) #9 comdat {
  %2 = alloca ptr, align 8
  store ptr %0, ptr %2, align 8, !tbaa !3
  %3 = load ptr, ptr %2, align 8, !tbaa !3
  ret ptr %3
}

; Function Attrs: mustprogress uwtable
define linkonce_odr hidden noundef zeroext i1 @_ZN4leaneqERKNS_3mpzES2_(ptr noundef nonnull align 8 dereferenceable(16) %0, ptr noundef nonnull align 8 dereferenceable(16) %1) #0 comdat {
  %3 = alloca ptr, align 8
  %4 = alloca ptr, align 8
  store ptr %0, ptr %3, align 8, !tbaa !115
  store ptr %1, ptr %4, align 8, !tbaa !115
  %5 = load ptr, ptr %3, align 8, !tbaa !115
  %6 = load ptr, ptr %4, align 8, !tbaa !115
  %7 = call noundef i32 @_ZN4lean3cmpERKNS_3mpzES2_(ptr noundef nonnull align 8 dereferenceable(16) %5, ptr noundef nonnull align 8 dereferenceable(16) %6)
  %8 = icmp eq i32 %7, 0
  ret i1 %8
}

; Function Attrs: inlinehint mustprogress nounwind uwtable
define linkonce_odr hidden noundef nonnull align 8 dereferenceable(16) ptr @_ZN4lean9mpz_valueEP11lean_object(ptr noundef %0) #9 comdat {
  %2 = alloca ptr, align 8
  store ptr %0, ptr %2, align 8, !tbaa !3
  %3 = load ptr, ptr %2, align 8, !tbaa !3
  %4 = call noundef ptr @_ZN4lean6to_mpzEP11lean_object(ptr noundef %3)
  %5 = getelementptr inbounds nuw %"struct.lean::mpz_object", ptr %4, i32 0, i32 1
  ret ptr %5
}

; Function Attrs: inlinehint mustprogress uwtable
define internal noundef ptr @_ZL16lean_string_cstrP11lean_object(ptr noundef %0) #3 {
  %2 = alloca ptr, align 8
  store ptr %0, ptr %2, align 8, !tbaa !3
  %3 = load ptr, ptr %2, align 8, !tbaa !3
  %4 = call noundef ptr @_ZL14lean_to_stringP11lean_object(ptr noundef %3)
  %5 = getelementptr inbounds nuw %struct.lean_string_object, ptr %4, i32 0, i32 4
  %6 = getelementptr inbounds [0 x i8], ptr %5, i64 0, i64 0
  ret ptr %6
}

; Function Attrs: inlinehint mustprogress nounwind uwtable
define internal noundef ptr @_ZL14lean_to_stringP11lean_object(ptr noundef %0) #9 {
  %2 = alloca ptr, align 8
  store ptr %0, ptr %2, align 8, !tbaa !3
  %3 = load ptr, ptr %2, align 8, !tbaa !3
  ret ptr %3
}

; Function Attrs: inlinehint mustprogress nounwind uwtable
define internal noundef ptr @_ZL12lean_to_ctorP11lean_object(ptr noundef %0) #9 {
  %2 = alloca ptr, align 8
  store ptr %0, ptr %2, align 8, !tbaa !3
  %3 = load ptr, ptr %2, align 8, !tbaa !3
  ret ptr %3
}

; Function Attrs: mustprogress uwtable
define zeroext i1 @lean_nat_big_eq(ptr noundef %0, ptr noundef %1) #0 {
  %3 = alloca i1, align 1
  %4 = alloca ptr, align 8
  %5 = alloca ptr, align 8
  store ptr %0, ptr %4, align 8, !tbaa !3
  store ptr %1, ptr %5, align 8, !tbaa !3
  %6 = load ptr, ptr %4, align 8, !tbaa !3
  %7 = call noundef zeroext i1 @_ZL14lean_is_scalarP11lean_object(ptr noundef %6)
  br i1 %7, label %8, label %9

8:                                                ; preds = %2
  store i1 false, ptr %3, align 1
  br label %19

9:                                                ; preds = %2
  %10 = load ptr, ptr %5, align 8, !tbaa !3
  %11 = call noundef zeroext i1 @_ZL14lean_is_scalarP11lean_object(ptr noundef %10)
  br i1 %11, label %12, label %13

12:                                               ; preds = %9
  store i1 false, ptr %3, align 1
  br label %19

13:                                               ; preds = %9
  %14 = load ptr, ptr %4, align 8, !tbaa !3
  %15 = call noundef nonnull align 8 dereferenceable(16) ptr @_ZN4lean9mpz_valueEP11lean_object(ptr noundef %14)
  %16 = load ptr, ptr %5, align 8, !tbaa !3
  %17 = call noundef nonnull align 8 dereferenceable(16) ptr @_ZN4lean9mpz_valueEP11lean_object(ptr noundef %16)
  %18 = call noundef zeroext i1 @_ZN4leaneqERKNS_3mpzES2_(ptr noundef nonnull align 8 dereferenceable(16) %15, ptr noundef nonnull align 8 dereferenceable(16) %17)
  store i1 %18, ptr %3, align 1
  br label %19

19:                                               ; preds = %13, %12, %8
  %20 = load i1, ptr %3, align 1
  ret i1 %20
}

; Function Attrs: mustprogress uwtable
define zeroext i1 @lean_string_eq_cold(ptr noundef %0, ptr noundef %1) #0 {
  %3 = alloca ptr, align 8
  %4 = alloca ptr, align 8
  store ptr %0, ptr %3, align 8, !tbaa !3
  store ptr %1, ptr %4, align 8, !tbaa !3
  %5 = load ptr, ptr %3, align 8, !tbaa !3
  %6 = call noundef ptr @_ZL16lean_string_cstrP11lean_object(ptr noundef %5)
  %7 = load ptr, ptr %4, align 8, !tbaa !3
  %8 = call noundef ptr @_ZL16lean_string_cstrP11lean_object(ptr noundef %7)
  %9 = load ptr, ptr %3, align 8, !tbaa !3
  %10 = call noundef i64 @_ZL16lean_string_sizeP11lean_object(ptr noundef %9)
  %11 = call i32 @memcmp(ptr noundef %6, ptr noundef %8, i64 noundef %10) #26
  %12 = icmp eq i32 %11, 0
  ret i1 %12
}

; Function Attrs: inlinehint mustprogress uwtable
define internal noundef i64 @_ZL16lean_string_sizeP11lean_object(ptr noundef %0) #3 {
  %2 = alloca ptr, align 8
  store ptr %0, ptr %2, align 8, !tbaa !3
  %3 = load ptr, ptr %2, align 8, !tbaa !3
  %4 = call noundef ptr @_ZL14lean_to_stringP11lean_object(ptr noundef %3)
  %5 = getelementptr inbounds nuw %struct.lean_string_object, ptr %4, i32 0, i32 1
  %6 = load i64, ptr %5, align 8, !tbaa !7
  ret i64 %6
}

; Function Attrs: inlinehint mustprogress uwtable
define internal noundef ptr @_ZL18lean_ctor_obj_cptrP11lean_object(ptr noundef %0) #3 {
  %2 = alloca ptr, align 8
  store ptr %0, ptr %2, align 8, !tbaa !3
  %3 = load ptr, ptr %2, align 8, !tbaa !3
  %4 = call noundef ptr @_ZL12lean_to_ctorP11lean_object(ptr noundef %3)
  %5 = getelementptr inbounds nuw %struct.lean_ctor_object, ptr %4, i32 0, i32 1
  %6 = getelementptr inbounds [0 x ptr], ptr %5, i64 0, i64 0
  ret ptr %6
}

; Function Attrs: inlinehint mustprogress uwtable
define internal noundef i64 @_ZL20lean_ctor_get_uint64P11lean_objectj(ptr noundef %0, i32 noundef %1) #3 {
  %3 = alloca ptr, align 8
  %4 = alloca i32, align 4
  store ptr %0, ptr %3, align 8, !tbaa !3
  store i32 %1, ptr %4, align 4, !tbaa !19
  %5 = load ptr, ptr %3, align 8, !tbaa !3
  %6 = call noundef ptr @_ZL18lean_ctor_obj_cptrP11lean_object(ptr noundef %5)
  %7 = load i32, ptr %4, align 4, !tbaa !19
  %8 = zext i32 %7 to i64
  %9 = getelementptr inbounds nuw i8, ptr %6, i64 %8
  %10 = load i64, ptr %9, align 8, !tbaa !7
  ret i64 %10
}

; Function Attrs: alwaysinline mustprogress uwtable
define internal noundef zeroext i1 @_ZL11lean_nat_eqP11lean_objectS0_(ptr noundef %0, ptr noundef %1) #8 {
  %3 = alloca i1, align 1
  %4 = alloca ptr, align 8
  %5 = alloca ptr, align 8
  store ptr %0, ptr %4, align 8, !tbaa !3
  store ptr %1, ptr %5, align 8, !tbaa !3
  %6 = load ptr, ptr %4, align 8, !tbaa !3
  %7 = call noundef zeroext i1 @_ZL14lean_is_scalarP11lean_object(ptr noundef %6)
  br i1 %7, label %8, label %11

8:                                                ; preds = %2
  %9 = load ptr, ptr %5, align 8, !tbaa !3
  %10 = call noundef zeroext i1 @_ZL14lean_is_scalarP11lean_object(ptr noundef %9)
  br label %11

11:                                               ; preds = %8, %2
  %12 = phi i1 [ false, %2 ], [ %10, %8 ]
  %13 = zext i1 %12 to i64
  %14 = call i64 @llvm.expect.i64(i64 %13, i64 1)
  %15 = icmp ne i64 %14, 0
  br i1 %15, label %16, label %20

16:                                               ; preds = %11
  %17 = load ptr, ptr %4, align 8, !tbaa !3
  %18 = load ptr, ptr %5, align 8, !tbaa !3
  %19 = icmp eq ptr %17, %18
  store i1 %19, ptr %3, align 1
  br label %24

20:                                               ; preds = %11
  %21 = load ptr, ptr %4, align 8, !tbaa !3
  %22 = load ptr, ptr %5, align 8, !tbaa !3
  %23 = call zeroext i1 @lean_nat_big_eq(ptr noundef %21, ptr noundef %22)
  store i1 %23, ptr %3, align 1
  br label %24

24:                                               ; preds = %20, %16
  %25 = load i1, ptr %3, align 1
  ret i1 %25
}

; Function Attrs: inlinehint mustprogress uwtable
define internal noundef zeroext i1 @_ZL14lean_string_eqP11lean_objectS0_(ptr noundef %0, ptr noundef %1) #3 {
  %3 = alloca ptr, align 8
  %4 = alloca ptr, align 8
  store ptr %0, ptr %3, align 8, !tbaa !3
  store ptr %1, ptr %4, align 8, !tbaa !3
  %5 = load ptr, ptr %3, align 8, !tbaa !3
  %6 = load ptr, ptr %4, align 8, !tbaa !3
  %7 = icmp eq ptr %5, %6
  br i1 %7, label %20, label %8

8:                                                ; preds = %2
  %9 = load ptr, ptr %3, align 8, !tbaa !3
  %10 = call noundef i64 @_ZL16lean_string_sizeP11lean_object(ptr noundef %9)
  %11 = load ptr, ptr %4, align 8, !tbaa !3
  %12 = call noundef i64 @_ZL16lean_string_sizeP11lean_object(ptr noundef %11)
  %13 = icmp eq i64 %10, %12
  br i1 %13, label %14, label %18

14:                                               ; preds = %8
  %15 = load ptr, ptr %3, align 8, !tbaa !3
  %16 = load ptr, ptr %4, align 8, !tbaa !3
  %17 = call zeroext i1 @lean_string_eq_cold(ptr noundef %15, ptr noundef %16)
  br label %18

18:                                               ; preds = %14, %8
  %19 = phi i1 [ false, %8 ], [ %17, %14 ]
  br label %20

20:                                               ; preds = %18, %2
  %21 = phi i1 [ true, %2 ], [ %19, %18 ]
  ret i1 %21
}

; Function Attrs: inlinehint mustprogress uwtable
define internal noundef ptr @_ZL13lean_ctor_getP11lean_objectj(ptr noundef %0, i32 noundef %1) #3 {
  %3 = alloca ptr, align 8
  %4 = alloca i32, align 4
  store ptr %0, ptr %3, align 8, !tbaa !3
  store i32 %1, ptr %4, align 4, !tbaa !19
  %5 = load ptr, ptr %3, align 8, !tbaa !3
  %6 = call noundef ptr @_ZL18lean_ctor_obj_cptrP11lean_object(ptr noundef %5)
  %7 = load i32, ptr %4, align 4, !tbaa !19
  %8 = zext i32 %7 to i64
  %9 = getelementptr inbounds nuw ptr, ptr %6, i64 %8
  %10 = load ptr, ptr %9, align 8, !tbaa !3
  ret ptr %10
}

; Function Attrs: inlinehint mustprogress nounwind uwtable
define internal noundef zeroext i8 @_ZL12lean_ptr_tagP11lean_object(ptr noundef %0) #9 {
  %2 = alloca ptr, align 8
  store ptr %0, ptr %2, align 8, !tbaa !3
  %3 = load ptr, ptr %2, align 8, !tbaa !3
  %4 = getelementptr inbounds nuw %struct.lean_object, ptr %3, i32 0, i32 1
  %5 = load i32, ptr %4, align 4
  %6 = lshr i32 %5, 24
  %7 = trunc i32 %6 to i8
  ret i8 %7
}

; Function Attrs: inlinehint mustprogress uwtable
define internal noundef i64 @_ZL18lean_name_hash_ptrP11lean_object(ptr noundef %0) #3 {
  %2 = alloca ptr, align 8
  store ptr %0, ptr %2, align 8, !tbaa !3
  %3 = load ptr, ptr %2, align 8, !tbaa !3
  %4 = call noundef i64 @_ZL20lean_ctor_get_uint64P11lean_objectj(ptr noundef %3, i32 noundef 16)
  ret i64 %4
}

; Function Attrs: alwaysinline mustprogress nounwind uwtable
define internal noundef zeroext i1 @_ZL14lean_is_scalarP11lean_object(ptr noundef %0) #11 {
  %2 = alloca ptr, align 8
  store ptr %0, ptr %2, align 8, !tbaa !3
  %3 = load ptr, ptr %2, align 8, !tbaa !3
  %4 = ptrtoint ptr %3 to i64
  %5 = and i64 %4, 1
  %6 = icmp eq i64 %5, 1
  ret i1 %6
}

; Function Attrs: mustprogress uwtable
define zeroext i8 @lean_name_eq(ptr noundef %0, ptr noundef %1) #0 {
  %3 = alloca i8, align 1
  %4 = alloca ptr, align 8
  %5 = alloca ptr, align 8
  store ptr %0, ptr %4, align 8, !tbaa !3
  store ptr %1, ptr %5, align 8, !tbaa !3
  %6 = load ptr, ptr %4, align 8, !tbaa !3
  %7 = load ptr, ptr %5, align 8, !tbaa !3
  %8 = icmp eq ptr %6, %7
  br i1 %8, label %9, label %10

9:                                                ; preds = %2
  store i8 1, ptr %3, align 1
  br label %75

10:                                               ; preds = %2
  %11 = load ptr, ptr %4, align 8, !tbaa !3
  %12 = call noundef zeroext i1 @_ZL14lean_is_scalarP11lean_object(ptr noundef %11)
  %13 = zext i1 %12 to i32
  %14 = load ptr, ptr %5, align 8, !tbaa !3
  %15 = call noundef zeroext i1 @_ZL14lean_is_scalarP11lean_object(ptr noundef %14)
  %16 = zext i1 %15 to i32
  %17 = icmp ne i32 %13, %16
  br i1 %17, label %24, label %18

18:                                               ; preds = %10
  %19 = load ptr, ptr %4, align 8, !tbaa !3
  %20 = call noundef i64 @_ZL18lean_name_hash_ptrP11lean_object(ptr noundef %19)
  %21 = load ptr, ptr %5, align 8, !tbaa !3
  %22 = call noundef i64 @_ZL18lean_name_hash_ptrP11lean_object(ptr noundef %21)
  %23 = icmp ne i64 %20, %22
  br i1 %23, label %24, label %25

24:                                               ; preds = %18, %10
  store i8 0, ptr %3, align 1
  br label %75

25:                                               ; preds = %18
  br label %26

26:                                               ; preds = %25, %74
  %27 = load ptr, ptr %4, align 8, !tbaa !3
  %28 = call noundef zeroext i8 @_ZL12lean_ptr_tagP11lean_object(ptr noundef %27)
  %29 = zext i8 %28 to i32
  %30 = load ptr, ptr %5, align 8, !tbaa !3
  %31 = call noundef zeroext i8 @_ZL12lean_ptr_tagP11lean_object(ptr noundef %30)
  %32 = zext i8 %31 to i32
  %33 = icmp ne i32 %29, %32
  br i1 %33, label %34, label %35

34:                                               ; preds = %26
  store i8 0, ptr %3, align 1
  br label %75

35:                                               ; preds = %26
  %36 = load ptr, ptr %4, align 8, !tbaa !3
  %37 = call noundef zeroext i8 @_ZL12lean_ptr_tagP11lean_object(ptr noundef %36)
  %38 = zext i8 %37 to i32
  %39 = icmp eq i32 %38, 1
  br i1 %39, label %40, label %48

40:                                               ; preds = %35
  %41 = load ptr, ptr %4, align 8, !tbaa !3
  %42 = call noundef ptr @_ZL13lean_ctor_getP11lean_objectj(ptr noundef %41, i32 noundef 1)
  %43 = load ptr, ptr %5, align 8, !tbaa !3
  %44 = call noundef ptr @_ZL13lean_ctor_getP11lean_objectj(ptr noundef %43, i32 noundef 1)
  %45 = call noundef zeroext i1 @_ZL14lean_string_eqP11lean_objectS0_(ptr noundef %42, ptr noundef %44)
  br i1 %45, label %47, label %46

46:                                               ; preds = %40
  store i8 0, ptr %3, align 1
  br label %75

47:                                               ; preds = %40
  br label %56

48:                                               ; preds = %35
  %49 = load ptr, ptr %4, align 8, !tbaa !3
  %50 = call noundef ptr @_ZL13lean_ctor_getP11lean_objectj(ptr noundef %49, i32 noundef 1)
  %51 = load ptr, ptr %4, align 8, !tbaa !3
  %52 = call noundef ptr @_ZL13lean_ctor_getP11lean_objectj(ptr noundef %51, i32 noundef 1)
  %53 = call noundef zeroext i1 @_ZL11lean_nat_eqP11lean_objectS0_(ptr noundef %50, ptr noundef %52)
  br i1 %53, label %55, label %54

54:                                               ; preds = %48
  store i8 0, ptr %3, align 1
  br label %75

55:                                               ; preds = %48
  br label %56

56:                                               ; preds = %55, %47
  %57 = load ptr, ptr %4, align 8, !tbaa !3
  %58 = call noundef ptr @_ZL13lean_ctor_getP11lean_objectj(ptr noundef %57, i32 noundef 0)
  store ptr %58, ptr %4, align 8, !tbaa !3
  %59 = load ptr, ptr %5, align 8, !tbaa !3
  %60 = call noundef ptr @_ZL13lean_ctor_getP11lean_objectj(ptr noundef %59, i32 noundef 0)
  store ptr %60, ptr %5, align 8, !tbaa !3
  %61 = load ptr, ptr %4, align 8, !tbaa !3
  %62 = load ptr, ptr %5, align 8, !tbaa !3
  %63 = icmp eq ptr %61, %62
  br i1 %63, label %64, label %65

64:                                               ; preds = %56
  store i8 1, ptr %3, align 1
  br label %75

65:                                               ; preds = %56
  %66 = load ptr, ptr %4, align 8, !tbaa !3
  %67 = call noundef zeroext i1 @_ZL14lean_is_scalarP11lean_object(ptr noundef %66)
  %68 = zext i1 %67 to i32
  %69 = load ptr, ptr %5, align 8, !tbaa !3
  %70 = call noundef zeroext i1 @_ZL14lean_is_scalarP11lean_object(ptr noundef %69)
  %71 = zext i1 %70 to i32
  %72 = icmp ne i32 %68, %71
  br i1 %72, label %73, label %74

73:                                               ; preds = %65
  store i8 0, ptr %3, align 1
  br label %75

74:                                               ; preds = %65
  br label %26, !llvm.loop !150

75:                                               ; preds = %73, %64, %54, %46, %34, %24, %9
  %76 = load i8, ptr %3, align 1
  ret i8 %76
}