; Function Attrs: mustprogress uwtable
define zeroext range(i8 0, 2) i8 @lean_name_eq(ptr noundef %0, ptr noundef %1) local_unnamed_addr #0 {
  %3 = icmp eq ptr %0, %1
  br i1 %3, label %_ZL14lean_string_eqP11lean_objectS0_.exit.thread30, label %4

4:                                                ; preds = %2
  %5 = ptrtoint ptr %0 to i64
  %6 = ptrtoint ptr %1 to i64
  %7 = xor i64 %6, %5
  %8 = and i64 %7, 1
  %.not32 = icmp eq i64 %8, 0
  br i1 %.not32, label %9, label %_ZL14lean_string_eqP11lean_objectS0_.exit.thread30

9:                                                ; preds = %4
  %10 = getelementptr i8, ptr %0, i64 24
  %.val = load i64, ptr %10, align 8, !tbaa !30
  %11 = getelementptr i8, ptr %1, i64 24
  %.val28 = load i64, ptr %11, align 8, !tbaa !30
  %.not = icmp eq i64 %.val, %.val28
  br i1 %.not, label %.preheader, label %_ZL14lean_string_eqP11lean_objectS0_.exit.thread30

.preheader:                                       ; preds = %9, %42
  %.019 = phi ptr [ %38, %42 ], [ %0, %9 ]
  %.0 = phi ptr [ %40, %42 ], [ %1, %9 ]
  %12 = getelementptr i8, ptr %.019, i64 4
  %.019.val27 = load i32, ptr %12, align 4
  %13 = lshr i32 %.019.val27, 24
  %14 = getelementptr i8, ptr %.0, i64 4
  %.0.val = load i32, ptr %14, align 4
  %15 = lshr i32 %.0.val, 24
  %.not25 = icmp eq i32 %13, %15
  br i1 %.not25, label %16, label %_ZL14lean_string_eqP11lean_objectS0_.exit.thread30

16:                                               ; preds = %.preheader
  %17 = icmp eq i32 %13, 1
  %18 = getelementptr inbounds nuw i8, ptr %.019, i64 16
  %19 = load ptr, ptr %18, align 8, !tbaa !31
  br i1 %17, label %20, label %31

20:                                               ; preds = %16
  %21 = getelementptr inbounds nuw i8, ptr %.0, i64 16
  %22 = load ptr, ptr %21, align 8, !tbaa !31
  %23 = icmp eq ptr %19, %22
  br i1 %23, label %_ZL14lean_string_eqP11lean_objectS0_.exit.thread, label %24

24:                                               ; preds = %20
  %25 = getelementptr i8, ptr %19, i64 8
  %.val7.i = load i64, ptr %25, align 8, !tbaa !30
  %26 = getelementptr i8, ptr %22, i64 8
  %.val.i = load i64, ptr %26, align 8, !tbaa !30
  %27 = icmp eq i64 %.val7.i, %.val.i
  br i1 %27, label %_ZL14lean_string_eqP11lean_objectS0_.exit, label %_ZL14lean_string_eqP11lean_objectS0_.exit.thread30

_ZL14lean_string_eqP11lean_objectS0_.exit:        ; preds = %24
  %28 = getelementptr inbounds nuw i8, ptr %19, i64 32
  %29 = getelementptr inbounds nuw i8, ptr %22, i64 32
  %bcmp.i.i = tail call i32 @bcmp(ptr nonnull readonly %28, ptr nonnull readonly %29, i64 %.val7.i)
  %30 = icmp eq i32 %bcmp.i.i, 0
  br i1 %30, label %_ZL14lean_string_eqP11lean_objectS0_.exit.thread, label %_ZL14lean_string_eqP11lean_objectS0_.exit.thread30

31:                                               ; preds = %16
  %32 = ptrtoint ptr %19 to i64
  %33 = and i64 %32, 1
  %.not33 = icmp eq i64 %33, 0
  br i1 %.not33, label %_ZL11lean_nat_eqP11lean_objectS0_.exit, label %_ZL14lean_string_eqP11lean_objectS0_.exit.thread, !prof !125

_ZL11lean_nat_eqP11lean_objectS0_.exit:           ; preds = %31
  %34 = getelementptr inbounds nuw i8, ptr %19, i64 8
  %35 = tail call noundef i32 @_ZN4lean3cmpERKNS_3mpzES2_(ptr noundef nonnull align 8 dereferenceable(16) %34, ptr noundef nonnull align 8 dereferenceable(16) %34)
  %36 = icmp eq i32 %35, 0
  br i1 %36, label %_ZL14lean_string_eqP11lean_objectS0_.exit.thread, label %_ZL14lean_string_eqP11lean_objectS0_.exit.thread30

_ZL14lean_string_eqP11lean_objectS0_.exit.thread: ; preds = %31, %20, %_ZL11lean_nat_eqP11lean_objectS0_.exit, %_ZL14lean_string_eqP11lean_objectS0_.exit
  %37 = getelementptr inbounds nuw i8, ptr %.019, i64 8
  %38 = load ptr, ptr %37, align 8, !tbaa !31
  %39 = getelementptr inbounds nuw i8, ptr %.0, i64 8
  %40 = load ptr, ptr %39, align 8, !tbaa !31
  %41 = icmp eq ptr %38, %40
  br i1 %41, label %_ZL14lean_string_eqP11lean_objectS0_.exit.thread30, label %42

42:                                               ; preds = %_ZL14lean_string_eqP11lean_objectS0_.exit.thread
  %43 = ptrtoint ptr %38 to i64
  %44 = ptrtoint ptr %40 to i64
  %45 = xor i64 %44, %43
  %46 = and i64 %45, 1
  %.not34 = icmp eq i64 %46, 0
  br i1 %.not34, label %.preheader, label %_ZL14lean_string_eqP11lean_objectS0_.exit.thread30, !llvm.loop !189

_ZL14lean_string_eqP11lean_objectS0_.exit.thread30: ; preds = %24, %42, %_ZL14lean_string_eqP11lean_objectS0_.exit.thread, %_ZL11lean_nat_eqP11lean_objectS0_.exit, %_ZL14lean_string_eqP11lean_objectS0_.exit, %.preheader, %4, %9, %2
  %.020 = phi i8 [ 1, %2 ], [ 0, %9 ], [ 0, %4 ], [ 0, %24 ], [ 0, %42 ], [ 1, %_ZL14lean_string_eqP11lean_objectS0_.exit.thread ], [ 0, %_ZL11lean_nat_eqP11lean_objectS0_.exit ], [ 0, %_ZL14lean_string_eqP11lean_objectS0_.exit ], [ 0, %.preheader ]
  ret i8 %.020
}